target datalayout = "e-m:e-p270:32:32-p271:32:32-p272:64:64-i64:64-i128:128-f80:128-n8:16:32:64-S128"
target triple = "x86_64-pc-linux-gnu"

%"class.llvm::SmallVectorBase" = type { ptr, i32, i32 }
%"class.llvm::VPDef" = type { ptr, i8, [7 x i8], %"class.llvm::TinyPtrVector" }
%"class.llvm::TinyPtrVector" = type { %"class.llvm::PointerUnion" }
%"class.llvm::PointerUnion" = type { %"class.llvm::pointer_union_detail::PointerUnionMembers" }
%"class.llvm::pointer_union_detail::PointerUnionMembers" = type { %"class.llvm::pointer_union_detail::PointerUnionMembers.0" }
%"class.llvm::pointer_union_detail::PointerUnionMembers.0" = type { %"class.llvm::pointer_union_detail::PointerUnionMembers.1" }
%"class.llvm::pointer_union_detail::PointerUnionMembers.1" = type { %"class.llvm::PointerIntPair" }
%"class.llvm::PointerIntPair" = type { %"struct.llvm::detail::PunnedPointer" }
%"struct.llvm::detail::PunnedPointer" = type { [8 x i8] }
%"class.llvm::VPRecipeBase" = type { %"class.llvm::VPDef", %"class.llvm::ilist_node_with_parent", %"class.llvm::VPUser.base", ptr, %"class.llvm::DebugLoc" }
%"class.llvm::ilist_node_with_parent" = type { %"class.llvm::ilist_node" }
%"class.llvm::ilist_node" = type { %"class.llvm::ilist_node_impl" }
%"class.llvm::ilist_node_impl" = type { %"class.llvm::ilist_node_base" }
%"class.llvm::ilist_node_base" = type { %"class.llvm::ilist_detail::node_base_prevnext" }
%"class.llvm::ilist_detail::node_base_prevnext" = type { ptr, ptr }
%"class.llvm::VPUser.base" = type <{ ptr, %"class.llvm::SmallVector", i32 }>
%"class.llvm::SmallVector" = type { %"class.llvm::SmallVectorImpl", %"struct.llvm::SmallVectorStorage" }
%"class.llvm::SmallVectorImpl" = type { %"class.llvm::SmallVectorTemplateBase" }
%"class.llvm::SmallVectorTemplateBase" = type { %"class.llvm::SmallVectorTemplateCommon" }
%"class.llvm::SmallVectorTemplateCommon" = type { %"class.llvm::SmallVectorBase" }
%"struct.llvm::SmallVectorStorage" = type { [16 x i8] }
%"class.llvm::DebugLoc" = type { %"class.llvm::TypedTrackingMDRef" }
%"class.llvm::TypedTrackingMDRef" = type { %"class.llvm::TrackingMDRef" }
%"class.llvm::TrackingMDRef" = type { ptr }
%"class.llvm::VPValue" = type { ptr, i8, %"class.llvm::SmallVector.2", ptr, ptr }
%"class.llvm::SmallVector.2" = type { %"class.llvm::SmallVectorImpl.3", %"struct.llvm::SmallVectorStorage.6" }
%"class.llvm::SmallVectorImpl.3" = type { %"class.llvm::SmallVectorTemplateBase.4" }
%"class.llvm::SmallVectorTemplateBase.4" = type { %"class.llvm::SmallVectorTemplateCommon.5" }
%"class.llvm::SmallVectorTemplateCommon.5" = type { %"class.llvm::SmallVectorBase" }
%"struct.llvm::SmallVectorStorage.6" = type { [8 x i8] }
%"class.llvm::VPInstruction" = type { %"class.llvm::VPRecipeWithIRFlags", i8, %"class.std::__cxx11::basic_string" }
%"class.llvm::VPRecipeWithIRFlags" = type { %"class.llvm::VPSingleDefRecipe", i8, %union.anon }
%"class.llvm::VPSingleDefRecipe" = type { %"class.llvm::VPRecipeBase", %"class.llvm::VPValue" }
%union.anon = type { i32 }
%"class.std::__cxx11::basic_string" = type { %"struct.std::__cxx11::basic_string<char>::_Alloc_hider", i64, %union.anon.21 }
%"struct.std::__cxx11::basic_string<char>::_Alloc_hider" = type { ptr }
%union.anon.21 = type { i64, [8 x i8] }

; Function Attrs: mustprogress nounwind uwtable
define linkonce_odr hidden noundef zeroext i1 @_ZN4llvm11Instruction10isBinaryOpEj(i32 noundef %0) #0 comdat align 2 {
  %2 = alloca i32, align 4
  store i32 %0, ptr %2, align 4
  %3 = load i32, ptr %2, align 4
  %4 = icmp uge i32 %3, 13
  br i1 %4, label %5, label %8

5:                                                ; preds = %1
  %6 = load i32, ptr %2, align 4
  %7 = icmp ult i32 %6, 31
  br label %8

8:                                                ; preds = %5, %1
  %9 = phi i1 [ false, %1 ], [ %7, %5 ]
  ret i1 %9
}

; Function Attrs: mustprogress nounwind uwtable
define linkonce_odr hidden noundef i32 @_ZNK4llvm13VPInstruction9getOpcodeEv(ptr noundef nonnull align 8 dereferenceable(208) %0) #0 comdat align 2 {
  %2 = alloca ptr, align 8
  store ptr %0, ptr %2, align 8
  %3 = load ptr, ptr %2, align 8
  %4 = getelementptr inbounds nuw %"class.llvm::VPInstruction", ptr %3, i32 0, i32 1
  %5 = load i8, ptr %4, align 8
  %6 = zext i8 %5 to i32
  ret i32 %6
}

; Function Attrs: mustprogress nounwind uwtable
define dso_local noundef zeroext i1 @_ZNK4llvm13VPInstruction17onlyFirstPartUsedEPKNS_7VPValueE(ptr noundef nonnull align 8 dereferenceable(208) %0, ptr noundef %1) unnamed_addr #0 align 2 {
  %3 = alloca i1, align 1
  %4 = alloca ptr, align 8
  %5 = alloca ptr, align 8
  store ptr %0, ptr %4, align 8
  store ptr %1, ptr %5, align 8
  %6 = load ptr, ptr %4, align 8
  %7 = call noundef i32 @_ZNK4llvm13VPInstruction9getOpcodeEv(ptr noundef nonnull align 8 dereferenceable(208) %6)
  %8 = call noundef zeroext i1 @_ZN4llvm11Instruction10isBinaryOpEj(i32 noundef %7)
  br i1 %8, label %9, label %12

9:                                                ; preds = %2
  %10 = getelementptr inbounds i8, ptr %6, i64 104
  %11 = call noundef zeroext i1 @_ZN4llvm7vputils17onlyFirstPartUsedEPKNS_7VPValueE(ptr noundef %10)
  store i1 %11, ptr %3, align 1
  br label %19

12:                                               ; preds = %2
  %13 = call noundef i32 @_ZNK4llvm13VPInstruction9getOpcodeEv(ptr noundef nonnull align 8 dereferenceable(208) %6)
  switch i32 %13, label %14 [
    i32 53, label %15
    i32 57, label %15
    i32 78, label %18
    i32 79, label %18
    i32 77, label %18
  ]

14:                                               ; preds = %12
  store i1 false, ptr %3, align 1
  br label %19

15:                                               ; preds = %12, %12
  %16 = getelementptr inbounds i8, ptr %6, i64 104
  %17 = call noundef zeroext i1 @_ZN4llvm7vputils17onlyFirstPartUsedEPKNS_7VPValueE(ptr noundef %16)
  store i1 %17, ptr %3, align 1
  br label %19

18:                                               ; preds = %12, %12, %12
  store i1 true, ptr %3, align 1
  br label %19

19:                                               ; preds = %18, %15, %14, %9
  %20 = load i1, ptr %3, align 1
  ret i1 %20
}

; Function Attrs: nounwind uwtable
define dso_local noundef zeroext i1 @_ZThn40_NK4llvm13VPInstruction17onlyFirstPartUsedEPKNS_7VPValueE(ptr noundef %0, ptr noundef %1) unnamed_addr #4 align 2 {
  %3 = alloca ptr, align 8
  %4 = alloca ptr, align 8
  store ptr %0, ptr %3, align 8
  store ptr %1, ptr %4, align 8
  %5 = load ptr, ptr %3, align 8
  %6 = getelementptr inbounds i8, ptr %5, i64 -40
  %7 = load ptr, ptr %4, align 8
  %8 = tail call noundef zeroext i1 @_ZNK4llvm13VPInstruction17onlyFirstPartUsedEPKNS_7VPValueE(ptr noundef nonnull align 8 dereferenceable(208) %6, ptr noundef %7)
  ret i1 %8
}