; Function Attrs: nounwind uwtable
define dso_local noundef zeroext i1 @_ZThn40_NK4llvm13VPInstruction17onlyFirstPartUsedEPKNS_7VPValueE(ptr noundef %0, ptr nocapture readnone %1) unnamed_addr #7 align 2 {
  %3 = getelementptr inbounds i8, ptr %0, i64 128
  %4 = load i8, ptr %3, align 8
  %5 = zext i8 %4 to i32
  %6 = add nsw i32 %5, -13
  %7 = icmp ult i32 %6, 18
  br i1 %7, label %8, label %11

8:                                                ; preds = %2
  %9 = getelementptr inbounds i8, ptr %0, i64 64
  %10 = tail call noundef zeroext i1 @_ZN4llvm7vputils17onlyFirstPartUsedEPKNS_7VPValueE(ptr noundef nonnull %9) #19
  br label %_ZNK4llvm13VPInstruction17onlyFirstPartUsedEPKNS_7VPValueE.exit

11:                                               ; preds = %2
  switch i8 %4, label %_ZNK4llvm13VPInstruction17onlyFirstPartUsedEPKNS_7VPValueE.exit [
    i8 53, label %12
    i8 57, label %12
    i8 78, label %15
    i8 79, label %15
    i8 77, label %15
  ]

12:                                               ; preds = %11, %11
  %13 = getelementptr inbounds i8, ptr %0, i64 64
  %14 = tail call noundef zeroext i1 @_ZN4llvm7vputils17onlyFirstPartUsedEPKNS_7VPValueE(ptr noundef nonnull %13) #19
  br label %_ZNK4llvm13VPInstruction17onlyFirstPartUsedEPKNS_7VPValueE.exit

15:                                               ; preds = %11, %11, %11
  br label %_ZNK4llvm13VPInstruction17onlyFirstPartUsedEPKNS_7VPValueE.exit

_ZNK4llvm13VPInstruction17onlyFirstPartUsedEPKNS_7VPValueE.exit: ; preds = %8, %11, %12, %15
  %.0.i = phi i1 [ %10, %8 ], [ true, %15 ], [ %14, %12 ], [ false, %11 ]
  ret i1 %.0.i
}